(dp1
S'smap_archiver_plugin'
p2
ccopy_reg
_reconstructor
p3
(ctwisted.plugin
CachedDropin
p4
c__builtin__
object
p5
NtRp6
(dp7
S'moduleName'
p8
S'twisted.plugins.smap_archiver_plugin'
p9
sS'description'
p10
S'\nCopyright (c) 2011, 2012, Regents of the University of California\nAll rights reserved.\n\nRedistribution and use in source and binary forms, with or without\nmodification, are permitted provided that the following conditions \nare met:\n\n - Redistributions of source code must retain the above copyright\n   notice, this list of conditions and the following disclaimer.\n - Redistributions in binary form must reproduce the above copyright\n   notice, this list of conditions and the following disclaimer in the\n   documentation and/or other materials provided with the\n   distribution.\n\nTHIS SOFTWARE IS PROVIDED BY THE COPYRIGHT HOLDERS AND CONTRIBUTORS\n"AS IS" AND ANY EXPRESS OR IMPLIED WARRANTIES, INCLUDING, BUT NOT\nLIMITED TO, THE IMPLIED WARRANTIES OF MERCHANTABILITY AND FITNESS \nFOR A PARTICULAR PURPOSE ARE DISCLAIMED. IN NO EVENT SHALL \nTHE COPYRIGHT HOLDER OR CONTRIBUTORS BE LIABLE FOR ANY DIRECT, \nINDIRECT, INCIDENTAL, SPECIAL, EXEMPLARY, OR CONSEQUENTIAL DAMAGES \n(INCLUDING, BUT NOT LIMITED TO, PROCUREMENT OF SUBSTITUTE GOODS OR \nSERVICES; LOSS OF USE, DATA, OR PROFITS; OR BUSINESS INTERRUPTION) \nHOWEVER CAUSED AND ON ANY THEORY OF LIABILITY, WHETHER IN CONTRACT, \nSTRICT LIABILITY, OR TORT (INCLUDING NEGLIGENCE OR OTHERWISE) \nARISING IN ANY WAY OUT OF THE USE OF THIS SOFTWARE, EVEN IF ADVISED \nOF THE POSSIBILITY OF SUCH DAMAGE.\n'
p11
sS'plugins'
p12
(lp13
sbsS'smap_plugin'
p14
g3
(g4
g5
NtRp15
(dp16
g8
S'twisted.plugins.smap_plugin'
p17
sg10
S'\nCopyright (c) 2011, 2012, Regents of the University of California\nAll rights reserved.\n\nRedistribution and use in source and binary forms, with or without\nmodification, are permitted provided that the following conditions \nare met:\n\n - Redistributions of source code must retain the above copyright\n   notice, this list of conditions and the following disclaimer.\n - Redistributions in binary form must reproduce the above copyright\n   notice, this list of conditions and the following disclaimer in the\n   documentation and/or other materials provided with the\n   distribution.\n\nTHIS SOFTWARE IS PROVIDED BY THE COPYRIGHT HOLDERS AND CONTRIBUTORS\n"AS IS" AND ANY EXPRESS OR IMPLIED WARRANTIES, INCLUDING, BUT NOT\nLIMITED TO, THE IMPLIED WARRANTIES OF MERCHANTABILITY AND FITNESS \nFOR A PARTICULAR PURPOSE ARE DISCLAIMED. IN NO EVENT SHALL \nTHE COPYRIGHT HOLDER OR CONTRIBUTORS BE LIABLE FOR ANY DIRECT, \nINDIRECT, INCIDENTAL, SPECIAL, EXEMPLARY, OR CONSEQUENTIAL DAMAGES \n(INCLUDING, BUT NOT LIMITED TO, PROCUREMENT OF SUBSTITUTE GOODS OR \nSERVICES; LOSS OF USE, DATA, OR PROFITS; OR BUSINESS INTERRUPTION) \nHOWEVER CAUSED AND ON ANY THEORY OF LIABILITY, WHETHER IN CONTRACT, \nSTRICT LIABILITY, OR TORT (INCLUDING NEGLIGENCE OR OTHERWISE) \nARISING IN ANY WAY OUT OF THE USE OF THIS SOFTWARE, EVEN IF ADVISED \nOF THE POSSIBILITY OF SUCH DAMAGE.\n'
p18
sg12
(lp19
g3
(ctwisted.plugin
CachedPlugin
p20
g5
NtRp21
(dp22
S'provided'
p23
(lp24
ctwisted.application.service
IServiceMaker
p25
actwisted.plugin
IPlugin
p26
asS'dropin'
p27
g15
sS'name'
p28
S'serviceMaker'
p29
sg10
Nsbasbs.